target datalayout = "e-m:e-p270:32:32-p271:32:32-p272:64:64-i64:64-i128:128-f80:128-n8:16:32:64-S128"
target triple = "x86_64-pc-linux-gnu"

%"class.zxing::Ref.30" = type { ptr }

; Function Attrs: mustprogress nounwind uwtable
define linkonce_odr noundef zeroext i1 @_ZSt5isnanf(float noundef %0) #1 comdat {
  %2 = alloca float, align 4
  store float %0, ptr %2, align 4, !tbaa !80
  %3 = load float, ptr %2, align 4, !tbaa !80
  %4 = call i1 @llvm.is.fpclass.f32(float %3, i32 3)
  ret i1 %4
}

; Function Attrs: inlinehint mustprogress uwtable
define linkonce_odr hidden noundef zeroext i1 @_ZN5zxing5isnanEf(float noundef %0) #9 comdat {
  %2 = alloca float, align 4
  store float %0, ptr %2, align 4, !tbaa !80
  %3 = load float, ptr %2, align 4, !tbaa !80
  %4 = call noundef zeroext i1 @_ZSt5isnanf(float noundef %3)
  ret i1 %4
}

; Function Attrs: mustprogress nounwind uwtable
define linkonce_odr hidden noundef ptr @_ZNK5zxing3RefINS_11ResultPointEEptEv(ptr noundef nonnull align 8 dereferenceable(8) %0) #1 comdat align 2 {
  %2 = alloca ptr, align 8
  store ptr %0, ptr %2, align 8, !tbaa !102
  %3 = load ptr, ptr %2, align 8
  %4 = getelementptr inbounds nuw %"class.zxing::Ref.30", ptr %3, i32 0, i32 0
  %5 = load ptr, ptr %4, align 8, !tbaa !106
  ret ptr %5
}

; Function Attrs: mustprogress uwtable
define hidden noundef float @_ZN5zxing6qrcode8Detector25calculateModuleSizeOneWayENS_3RefINS_11ResultPointEEES4_ii(ptr noundef nonnull align 8 dereferenceable(60) %0, ptr noundef %1, ptr noundef %2, i32 noundef %3, i32 noundef %4) #0 align 2 {
  %6 = alloca float, align 4
  %7 = alloca ptr, align 8
  %8 = alloca ptr, align 8
  %9 = alloca ptr, align 8
  %10 = alloca i32, align 4
  %11 = alloca i32, align 4
  %12 = alloca float, align 4
  %13 = alloca float, align 4
  %14 = alloca i32, align 4
  store ptr %0, ptr %7, align 8, !tbaa !3
  store ptr %1, ptr %8, align 8, !tbaa !102
  store ptr %2, ptr %9, align 8, !tbaa !102
  store i32 %3, ptr %10, align 4, !tbaa !75
  store i32 %4, ptr %11, align 4, !tbaa !75
  %15 = load ptr, ptr %7, align 8
  call void @llvm.lifetime.start.p0(i64 4, ptr %12) #16
  %16 = call noundef ptr @_ZNK5zxing3RefINS_11ResultPointEEptEv(ptr noundef nonnull align 8 dereferenceable(8) %1)
  %17 = load ptr, ptr %16, align 8, !tbaa !12
  %18 = getelementptr inbounds ptr, ptr %17, i64 2
  %19 = load ptr, ptr %18, align 8
  %20 = call noundef float %19(ptr noundef nonnull align 8 dereferenceable(20) %16)
  %21 = fptosi float %20 to i32
  %22 = call noundef ptr @_ZNK5zxing3RefINS_11ResultPointEEptEv(ptr noundef nonnull align 8 dereferenceable(8) %1)
  %23 = load ptr, ptr %22, align 8, !tbaa !12
  %24 = getelementptr inbounds ptr, ptr %23, i64 3
  %25 = load ptr, ptr %24, align 8
  %26 = call noundef float %25(ptr noundef nonnull align 8 dereferenceable(20) %22)
  %27 = fptosi float %26 to i32
  %28 = call noundef ptr @_ZNK5zxing3RefINS_11ResultPointEEptEv(ptr noundef nonnull align 8 dereferenceable(8) %2)
  %29 = load ptr, ptr %28, align 8, !tbaa !12
  %30 = getelementptr inbounds ptr, ptr %29, i64 2
  %31 = load ptr, ptr %30, align 8
  %32 = call noundef float %31(ptr noundef nonnull align 8 dereferenceable(20) %28)
  %33 = fptosi float %32 to i32
  %34 = call noundef ptr @_ZNK5zxing3RefINS_11ResultPointEEptEv(ptr noundef nonnull align 8 dereferenceable(8) %2)
  %35 = load ptr, ptr %34, align 8, !tbaa !12
  %36 = getelementptr inbounds ptr, ptr %35, i64 3
  %37 = load ptr, ptr %36, align 8
  %38 = call noundef float %37(ptr noundef nonnull align 8 dereferenceable(20) %34)
  %39 = fptosi float %38 to i32
  %40 = load i32, ptr %10, align 4, !tbaa !75
  %41 = call noundef float @_ZN5zxing6qrcode8Detector32sizeOfBlackWhiteBlackRunBothWaysEiiiiib(ptr noundef nonnull align 8 dereferenceable(60) %15, i32 noundef %21, i32 noundef %27, i32 noundef %33, i32 noundef %39, i32 noundef %40, i1 noundef zeroext false)
  store float %41, ptr %12, align 4, !tbaa !80
  call void @llvm.lifetime.start.p0(i64 4, ptr %13) #16
  %42 = call noundef ptr @_ZNK5zxing3RefINS_11ResultPointEEptEv(ptr noundef nonnull align 8 dereferenceable(8) %2)
  %43 = load ptr, ptr %42, align 8, !tbaa !12
  %44 = getelementptr inbounds ptr, ptr %43, i64 2
  %45 = load ptr, ptr %44, align 8
  %46 = call noundef float %45(ptr noundef nonnull align 8 dereferenceable(20) %42)
  %47 = fptosi float %46 to i32
  %48 = call noundef ptr @_ZNK5zxing3RefINS_11ResultPointEEptEv(ptr noundef nonnull align 8 dereferenceable(8) %2)
  %49 = load ptr, ptr %48, align 8, !tbaa !12
  %50 = getelementptr inbounds ptr, ptr %49, i64 3
  %51 = load ptr, ptr %50, align 8
  %52 = call noundef float %51(ptr noundef nonnull align 8 dereferenceable(20) %48)
  %53 = fptosi float %52 to i32
  %54 = call noundef ptr @_ZNK5zxing3RefINS_11ResultPointEEptEv(ptr noundef nonnull align 8 dereferenceable(8) %1)
  %55 = load ptr, ptr %54, align 8, !tbaa !12
  %56 = getelementptr inbounds ptr, ptr %55, i64 2
  %57 = load ptr, ptr %56, align 8
  %58 = call noundef float %57(ptr noundef nonnull align 8 dereferenceable(20) %54)
  %59 = fptosi float %58 to i32
  %60 = call noundef ptr @_ZNK5zxing3RefINS_11ResultPointEEptEv(ptr noundef nonnull align 8 dereferenceable(8) %1)
  %61 = load ptr, ptr %60, align 8, !tbaa !12
  %62 = getelementptr inbounds ptr, ptr %61, i64 3
  %63 = load ptr, ptr %62, align 8
  %64 = call noundef float %63(ptr noundef nonnull align 8 dereferenceable(20) %60)
  %65 = fptosi float %64 to i32
  %66 = load i32, ptr %11, align 4, !tbaa !75
  %67 = call noundef float @_ZN5zxing6qrcode8Detector32sizeOfBlackWhiteBlackRunBothWaysEiiiiib(ptr noundef nonnull align 8 dereferenceable(60) %15, i32 noundef %47, i32 noundef %53, i32 noundef %59, i32 noundef %65, i32 noundef %66, i1 noundef zeroext true)
  store float %67, ptr %13, align 4, !tbaa !80
  %68 = load float, ptr %12, align 4, !tbaa !80
  %69 = call noundef zeroext i1 @_ZN5zxing5isnanEf(float noundef %68)
  br i1 %69, label %70, label %73

70:                                               ; preds = %5
  %71 = load float, ptr %13, align 4, !tbaa !80
  %72 = fdiv float %71, 7.000000e+00
  store float %72, ptr %6, align 4
  store i32 1, ptr %14, align 4
  br label %84

73:                                               ; preds = %5
  %74 = load float, ptr %13, align 4, !tbaa !80
  %75 = call noundef zeroext i1 @_ZN5zxing5isnanEf(float noundef %74)
  br i1 %75, label %76, label %79

76:                                               ; preds = %73
  %77 = load float, ptr %12, align 4, !tbaa !80
  %78 = fdiv float %77, 7.000000e+00
  store float %78, ptr %6, align 4
  store i32 1, ptr %14, align 4
  br label %84

79:                                               ; preds = %73
  %80 = load float, ptr %12, align 4, !tbaa !80
  %81 = load float, ptr %13, align 4, !tbaa !80
  %82 = fadd float %80, %81
  %83 = fdiv float %82, 1.400000e+01
  store float %83, ptr %6, align 4
  store i32 1, ptr %14, align 4
  br label %84

84:                                               ; preds = %79, %76, %70
  call void @llvm.lifetime.end.p0(i64 4, ptr %13) #16
  call void @llvm.lifetime.end.p0(i64 4, ptr %12) #16
  %85 = load float, ptr %6, align 4
  ret float %85
}