; Function Attrs: mustprogress uwtable
define hidden noundef float @_ZN5zxing6qrcode8Detector25calculateModuleSizeOneWayENS_3RefINS_11ResultPointEEES4_ii(ptr noundef nonnull readonly align 8 captures(none) dereferenceable(60) %0, ptr noundef readonly captures(none) %1, ptr noundef readonly captures(none) %2, i32 noundef %3, i32 noundef %4) local_unnamed_addr #1 align 2 {
  %6 = load ptr, ptr %1, align 8, !tbaa !82
  %7 = load ptr, ptr %6, align 8, !tbaa !8
  %8 = getelementptr inbounds nuw i8, ptr %7, i64 16
  %9 = load ptr, ptr %8, align 8
  %10 = tail call noundef float %9(ptr noundef nonnull align 8 dereferenceable(20) %6)
  %11 = fptosi float %10 to i32
  %12 = load ptr, ptr %1, align 8, !tbaa !82
  %13 = load ptr, ptr %12, align 8, !tbaa !8
  %14 = getelementptr inbounds nuw i8, ptr %13, i64 24
  %15 = load ptr, ptr %14, align 8
  %16 = tail call noundef float %15(ptr noundef nonnull align 8 dereferenceable(20) %12)
  %17 = fptosi float %16 to i32
  %18 = load ptr, ptr %2, align 8, !tbaa !82
  %19 = load ptr, ptr %18, align 8, !tbaa !8
  %20 = getelementptr inbounds nuw i8, ptr %19, i64 16
  %21 = load ptr, ptr %20, align 8
  %22 = tail call noundef float %21(ptr noundef nonnull align 8 dereferenceable(20) %18)
  %23 = fptosi float %22 to i32
  %24 = load ptr, ptr %2, align 8, !tbaa !82
  %25 = load ptr, ptr %24, align 8, !tbaa !8
  %26 = getelementptr inbounds nuw i8, ptr %25, i64 24
  %27 = load ptr, ptr %26, align 8
  %28 = tail call noundef float %27(ptr noundef nonnull align 8 dereferenceable(20) %24)
  %29 = fptosi float %28 to i32
  %30 = tail call noundef float @_ZN5zxing6qrcode8Detector32sizeOfBlackWhiteBlackRunBothWaysEiiiiib(ptr noundef nonnull align 8 dereferenceable(60) %0, i32 noundef %11, i32 noundef %17, i32 noundef %23, i32 noundef %29, i32 noundef %3, i1 noundef zeroext false)
  %31 = load ptr, ptr %2, align 8, !tbaa !82
  %32 = load ptr, ptr %31, align 8, !tbaa !8
  %33 = getelementptr inbounds nuw i8, ptr %32, i64 16
  %34 = load ptr, ptr %33, align 8
  %35 = tail call noundef float %34(ptr noundef nonnull align 8 dereferenceable(20) %31)
  %36 = fptosi float %35 to i32
  %37 = load ptr, ptr %2, align 8, !tbaa !82
  %38 = load ptr, ptr %37, align 8, !tbaa !8
  %39 = getelementptr inbounds nuw i8, ptr %38, i64 24
  %40 = load ptr, ptr %39, align 8
  %41 = tail call noundef float %40(ptr noundef nonnull align 8 dereferenceable(20) %37)
  %42 = fptosi float %41 to i32
  %43 = load ptr, ptr %1, align 8, !tbaa !82
  %44 = load ptr, ptr %43, align 8, !tbaa !8
  %45 = getelementptr inbounds nuw i8, ptr %44, i64 16
  %46 = load ptr, ptr %45, align 8
  %47 = tail call noundef float %46(ptr noundef nonnull align 8 dereferenceable(20) %43)
  %48 = fptosi float %47 to i32
  %49 = load ptr, ptr %1, align 8, !tbaa !82
  %50 = load ptr, ptr %49, align 8, !tbaa !8
  %51 = getelementptr inbounds nuw i8, ptr %50, i64 24
  %52 = load ptr, ptr %51, align 8
  %53 = tail call noundef float %52(ptr noundef nonnull align 8 dereferenceable(20) %49)
  %54 = fptosi float %53 to i32
  %55 = tail call noundef float @_ZN5zxing6qrcode8Detector32sizeOfBlackWhiteBlackRunBothWaysEiiiiib(ptr noundef nonnull align 8 dereferenceable(60) %0, i32 noundef %36, i32 noundef %42, i32 noundef %48, i32 noundef %54, i32 noundef %4, i1 noundef zeroext true)
  %56 = fcmp uno float %30, 0.000000e+00
  br i1 %56, label %57, label %59

57:                                               ; preds = %5
  %58 = fdiv float %55, 7.000000e+00
  br label %66

59:                                               ; preds = %5
  %60 = fcmp uno float %55, 0.000000e+00
  br i1 %60, label %61, label %63

61:                                               ; preds = %59
  %62 = fdiv float %30, 7.000000e+00
  br label %66

63:                                               ; preds = %59
  %64 = fadd float %30, %55
  %65 = fdiv float %64, 1.400000e+01
  br label %66

66:                                               ; preds = %63, %61, %57
  %.0 = phi float [ %58, %57 ], [ %62, %61 ], [ %65, %63 ]
  ret float %.0
}